
build/rv64ud-p-fcvt:     file format elf64-littleriscv


Disassembly of section .text.init:

0000000080000000 <_start>:
    80000000:	0040006f          	j	80000004 <reset_vector>

0000000080000004 <reset_vector>:
    80000004:	00000093          	li	ra,0
    80000008:	00000113          	li	sp,0
    8000000c:	00000193          	li	gp,0
    80000010:	00000213          	li	tp,0
    80000014:	00000293          	li	t0,0
    80000018:	00000313          	li	t1,0
    8000001c:	00000393          	li	t2,0
    80000020:	00000413          	li	s0,0
    80000024:	00000493          	li	s1,0
    80000028:	00000513          	li	a0,0
    8000002c:	00000593          	li	a1,0
    80000030:	00000613          	li	a2,0
    80000034:	00000693          	li	a3,0
    80000038:	00000713          	li	a4,0
    8000003c:	00000793          	li	a5,0
    80000040:	00000813          	li	a6,0
    80000044:	00000893          	li	a7,0
    80000048:	00000913          	li	s2,0
    8000004c:	00000993          	li	s3,0
    80000050:	00000a13          	li	s4,0
    80000054:	00000a93          	li	s5,0
    80000058:	00000b13          	li	s6,0
    8000005c:	00000b93          	li	s7,0
    80000060:	00000c13          	li	s8,0
    80000064:	00000c93          	li	s9,0
    80000068:	00000d13          	li	s10,0
    8000006c:	00000d93          	li	s11,0
    80000070:	00000e13          	li	t3,0
    80000074:	00000e93          	li	t4,0
    80000078:	00000f13          	li	t5,0
    8000007c:	00000f93          	li	t6,0
    80000080:	00000193          	li	gp,0
    80000084:	00002537          	lui	a0,0x2
    80000088:	30052073          	csrs	mstatus,a0
    8000008c:	00305073          	csrwi	fcsr,0

0000000080000090 <test_2>:
    80000090:	00200193          	li	gp,2
    80000094:	00002517          	auipc	a0,0x2
    80000098:	ff453503          	ld	a0,-12(a0) # 80002088 <_GLOBAL_OFFSET_TABLE_+0x8>
    8000009c:	00053683          	ld	a3,0(a0)
    800000a0:	00200513          	li	a0,2
    800000a4:	d2050053          	fcvt.d.w	ft0,a0
    800000a8:	00101073          	fsflags	zero
    800000ac:	e2000553          	fmv.x.d	a0,ft0
    800000b0:	1ad51263          	bne	a0,a3,80000254 <fail>

00000000800000b4 <test_3>:
    800000b4:	00300193          	li	gp,3
    800000b8:	00002517          	auipc	a0,0x2
    800000bc:	fd853503          	ld	a0,-40(a0) # 80002090 <_GLOBAL_OFFSET_TABLE_+0x10>
    800000c0:	00053683          	ld	a3,0(a0)
    800000c4:	ffe00513          	li	a0,-2
    800000c8:	d2050053          	fcvt.d.w	ft0,a0
    800000cc:	00101073          	fsflags	zero
    800000d0:	e2000553          	fmv.x.d	a0,ft0
    800000d4:	18d51063          	bne	a0,a3,80000254 <fail>

00000000800000d8 <test_4>:
    800000d8:	00400193          	li	gp,4
    800000dc:	00002517          	auipc	a0,0x2
    800000e0:	fbc53503          	ld	a0,-68(a0) # 80002098 <_GLOBAL_OFFSET_TABLE_+0x18>
    800000e4:	00053683          	ld	a3,0(a0)
    800000e8:	00200513          	li	a0,2
    800000ec:	d2150053          	fcvt.d.wu	ft0,a0
    800000f0:	00101073          	fsflags	zero
    800000f4:	e2000553          	fmv.x.d	a0,ft0
    800000f8:	14d51e63          	bne	a0,a3,80000254 <fail>

00000000800000fc <test_5>:
    800000fc:	00500193          	li	gp,5
    80000100:	00002517          	auipc	a0,0x2
    80000104:	fa053503          	ld	a0,-96(a0) # 800020a0 <_GLOBAL_OFFSET_TABLE_+0x20>
    80000108:	00053683          	ld	a3,0(a0)
    8000010c:	ffe00513          	li	a0,-2
    80000110:	d2150053          	fcvt.d.wu	ft0,a0
    80000114:	00101073          	fsflags	zero
    80000118:	e2000553          	fmv.x.d	a0,ft0
    8000011c:	12d51c63          	bne	a0,a3,80000254 <fail>

0000000080000120 <test_6>:
    80000120:	00600193          	li	gp,6
    80000124:	00002517          	auipc	a0,0x2
    80000128:	f8453503          	ld	a0,-124(a0) # 800020a8 <_GLOBAL_OFFSET_TABLE_+0x28>
    8000012c:	00053683          	ld	a3,0(a0)
    80000130:	00200513          	li	a0,2
    80000134:	d2257053          	fcvt.d.l	ft0,a0
    80000138:	00101073          	fsflags	zero
    8000013c:	e2000553          	fmv.x.d	a0,ft0
    80000140:	10d51a63          	bne	a0,a3,80000254 <fail>

0000000080000144 <test_7>:
    80000144:	00700193          	li	gp,7
    80000148:	00002517          	auipc	a0,0x2
    8000014c:	f6853503          	ld	a0,-152(a0) # 800020b0 <_GLOBAL_OFFSET_TABLE_+0x30>
    80000150:	00053683          	ld	a3,0(a0)
    80000154:	ffe00513          	li	a0,-2
    80000158:	d2257053          	fcvt.d.l	ft0,a0
    8000015c:	00101073          	fsflags	zero
    80000160:	e2000553          	fmv.x.d	a0,ft0
    80000164:	0ed51863          	bne	a0,a3,80000254 <fail>

0000000080000168 <test_8>:
    80000168:	00800193          	li	gp,8
    8000016c:	00002517          	auipc	a0,0x2
    80000170:	f4c53503          	ld	a0,-180(a0) # 800020b8 <_GLOBAL_OFFSET_TABLE_+0x38>
    80000174:	00053683          	ld	a3,0(a0)
    80000178:	00200513          	li	a0,2
    8000017c:	d2357053          	fcvt.d.lu	ft0,a0
    80000180:	00101073          	fsflags	zero
    80000184:	e2000553          	fmv.x.d	a0,ft0
    80000188:	0cd51663          	bne	a0,a3,80000254 <fail>

000000008000018c <test_9>:
    8000018c:	00900193          	li	gp,9
    80000190:	00002517          	auipc	a0,0x2
    80000194:	f3053503          	ld	a0,-208(a0) # 800020c0 <_GLOBAL_OFFSET_TABLE_+0x40>
    80000198:	00053683          	ld	a3,0(a0)
    8000019c:	ffe00513          	li	a0,-2
    800001a0:	d2357053          	fcvt.d.lu	ft0,a0
    800001a4:	00101073          	fsflags	zero
    800001a8:	e2000553          	fmv.x.d	a0,ft0
    800001ac:	0ad51463          	bne	a0,a3,80000254 <fail>

00000000800001b0 <test_10>:
    800001b0:	00a00193          	li	gp,10
    800001b4:	00002517          	auipc	a0,0x2
    800001b8:	f1453503          	ld	a0,-236(a0) # 800020c8 <_GLOBAL_OFFSET_TABLE_+0x48>
    800001bc:	00053007          	fld	ft0,0(a0)
    800001c0:	00853087          	fld	ft1,8(a0)
    800001c4:	01053107          	fld	ft2,16(a0)
    800001c8:	01853683          	ld	a3,24(a0)
    800001cc:	401071d3          	fcvt.s.d	ft3,ft0
    800001d0:	420181d3          	fcvt.d.s	ft3,ft3
    800001d4:	e2018553          	fmv.x.d	a0,ft3
    800001d8:	001015f3          	fsflags	a1,zero
    800001dc:	00000613          	li	a2,0
    800001e0:	06d51a63          	bne	a0,a3,80000254 <fail>
    800001e4:	06c59863          	bne	a1,a2,80000254 <fail>

00000000800001e8 <test_11>:
    800001e8:	00b00193          	li	gp,11
    800001ec:	00002517          	auipc	a0,0x2
    800001f0:	ee453503          	ld	a0,-284(a0) # 800020d0 <_GLOBAL_OFFSET_TABLE_+0x50>
    800001f4:	00052007          	flw	ft0,0(a0)
    800001f8:	00452087          	flw	ft1,4(a0)
    800001fc:	00852107          	flw	ft2,8(a0)
    80000200:	00c52683          	lw	a3,12(a0)
    80000204:	420001d3          	fcvt.d.s	ft3,ft0
    80000208:	4011f1d3          	fcvt.s.d	ft3,ft3
    8000020c:	e0018553          	fmv.x.w	a0,ft3
    80000210:	001015f3          	fsflags	a1,zero
    80000214:	00000613          	li	a2,0
    80000218:	02d51e63          	bne	a0,a3,80000254 <fail>
    8000021c:	02c59c63          	bne	a1,a2,80000254 <fail>

0000000080000220 <test_12>:
    80000220:	00002597          	auipc	a1,0x2
    80000224:	eb85b583          	ld	a1,-328(a1) # 800020d8 <_GLOBAL_OFFSET_TABLE_+0x58>
    80000228:	0005b603          	ld	a2,0(a1)
    8000022c:	f2060153          	fmv.d.x	ft2,a2
    80000230:	40117153          	fcvt.s.d	ft2,ft2
    80000234:	42010153          	fcvt.d.s	ft2,ft2
    80000238:	e2010553          	fmv.x.d	a0,ft2
    8000023c:	000013b7          	lui	t2,0x1
    80000240:	fff3839b          	addiw	t2,t2,-1
    80000244:	03339393          	slli	t2,t2,0x33
    80000248:	00c00193          	li	gp,12
    8000024c:	00751463          	bne	a0,t2,80000254 <fail>
    80000250:	00301663          	bne	zero,gp,8000025c <pass>

0000000080000254 <fail>:
    80000254:	00100513          	li	a0,1
    80000258:	0000006b          	0x6b

000000008000025c <pass>:
    8000025c:	00000513          	li	a0,0
    80000260:	0000006b          	0x6b
    80000264:	00000513          	li	a0,0
    80000268:	0000006b          	0x6b
    8000026c:	0000                	unimp
    8000026e:	0000                	unimp
    80000270:	0000                	unimp
    80000272:	0000                	unimp
    80000274:	0000                	unimp
    80000276:	0000                	unimp
    80000278:	0000                	unimp
    8000027a:	0000                	unimp
    8000027c:	0000                	unimp
    8000027e:	0000                	unimp
    80000280:	0000                	unimp
    80000282:	0000                	unimp

Disassembly of section .tohost:

0000000080001000 <tohost>:
    80001000:	0000                	unimp
    80001002:	0000                	unimp
    80001004:	0000                	unimp
    80001006:	0000                	unimp
    80001008:	0000                	unimp
    8000100a:	0000                	unimp
    8000100c:	0000                	unimp
    8000100e:	0000                	unimp
    80001010:	0000                	unimp
    80001012:	0000                	unimp
    80001014:	0000                	unimp
    80001016:	0000                	unimp
    80001018:	0000                	unimp
    8000101a:	0000                	unimp
    8000101c:	0000                	unimp
    8000101e:	0000                	unimp
    80001020:	0000                	unimp
    80001022:	0000                	unimp
    80001024:	0000                	unimp
    80001026:	0000                	unimp
    80001028:	0000                	unimp
    8000102a:	0000                	unimp
    8000102c:	0000                	unimp
    8000102e:	0000                	unimp
    80001030:	0000                	unimp
    80001032:	0000                	unimp
    80001034:	0000                	unimp
    80001036:	0000                	unimp
    80001038:	0000                	unimp
    8000103a:	0000                	unimp
    8000103c:	0000                	unimp
    8000103e:	0000                	unimp

0000000080001040 <fromhost>:
    80001040:	0000                	unimp
    80001042:	0000                	unimp
    80001044:	0000                	unimp
    80001046:	0000                	unimp
